; Function Attrs: nounwind uwtable
define void @b2Joint_WakeBodies(i64 %0) local_unnamed_addr #0 {
  %.sroa.2.0.extract.shift = lshr i64 %0, 32
  %2 = trunc nuw i64 %.sroa.2.0.extract.shift to i32
  %3 = and i32 %2, 65535
  %4 = tail call ptr @b2GetWorldLocked(i32 noundef %3) #10
  %5 = icmp eq ptr %4, null
  br i1 %5, label %22, label %6

6:                                                ; preds = %1
  %7 = getelementptr inbounds nuw i8, ptr %4, i64 1112
  %.val.i = load ptr, ptr %7, align 8, !tbaa !10
  %8 = shl i64 %0, 32
  %sext.i = add i64 %8, -4294967296
  %9 = ashr exact i64 %sext.i, 32
  %10 = getelementptr inbounds %struct.b2Joint, ptr %.val.i, i64 %9
  %11 = getelementptr inbounds nuw i8, ptr %4, i64 1032
  %12 = getelementptr inbounds nuw i8, ptr %10, i64 20
  %13 = load i32, ptr %12, align 4, !tbaa !143
  %.val10 = load ptr, ptr %11, align 8, !tbaa !207
  %14 = sext i32 %13 to i64
  %15 = getelementptr inbounds %struct.b2Body, ptr %.val10, i64 %14
  %16 = getelementptr inbounds nuw i8, ptr %10, i64 32
  %17 = load i32, ptr %16, align 4, !tbaa !143
  %18 = sext i32 %17 to i64
  %19 = getelementptr inbounds %struct.b2Body, ptr %.val10, i64 %18
  %20 = tail call zeroext i1 @b2WakeBody(ptr noundef nonnull %4, ptr noundef %15) #10
  %21 = tail call zeroext i1 @b2WakeBody(ptr noundef nonnull %4, ptr noundef %19) #10
  br label %22

22:                                               ; preds = %1, %6
  ret void
}